
main:     file format elf32-littleriscv


Disassembly of section .text:

80000000 <_start>:
80000000:	f14022f3          	csrr	t0,mhartid
80000004:	02029263          	bnez	t0,80000028 <halt>
80000008:	00002117          	auipc	sp,0x2
8000000c:	90010113          	addi	sp,sp,-1792 # 80001908 <_end>

80000010 <main_entry>:
80000010:	00000513          	li	a0,0
80000014:	00000593          	li	a1,0
80000018:	0d4000ef          	jal	ra,800000ec <main>
8000001c:	00001517          	auipc	a0,0x1
80000020:	80c50513          	addi	a0,a0,-2036 # 80000828 <msg>
80000024:	008000ef          	jal	ra,8000002c <puts>

80000028 <halt>:
80000028:	0000006f          	j	80000028 <halt>

8000002c <puts>:
8000002c:	100002b7          	lui	t0,0x10000

80000030 <uart_print>:
80000030:	00054303          	lbu	t1,0(a0)
80000034:	00030c63          	beqz	t1,8000004c <uart_end>

80000038 <positive>:
80000038:	0002a383          	lw	t2,0(t0) # 10000000 <UART_BASE>
8000003c:	fe03cee3          	bltz	t2,80000038 <positive>
80000040:	0062a023          	sw	t1,0(t0)
80000044:	00150513          	addi	a0,a0,1
80000048:	fe9ff06f          	j	80000030 <uart_print>

8000004c <uart_end>:
8000004c:	00008067          	ret
80000050:	0000                	.2byte	0x0
	...

80000054 <print_sudoku_result>:
80000054:	fc010113          	addi	sp,sp,-64
80000058:	02112e23          	sw	ra,60(sp)
8000005c:	02812c23          	sw	s0,56(sp)
80000060:	04010413          	addi	s0,sp,64
80000064:	800017b7          	lui	a5,0x80001
80000068:	86878513          	addi	a0,a5,-1944 # 80000868 <_end+0xffffef60>
8000006c:	fc1ff0ef          	jal	ra,8000002c <puts>
80000070:	800017b7          	lui	a5,0x80001
80000074:	89078513          	addi	a0,a5,-1904 # 80000890 <_end+0xffffef88>
80000078:	fb5ff0ef          	jal	ra,8000002c <puts>
8000007c:	fe042623          	sw	zero,-20(s0)
80000080:	0480006f          	j	800000c8 <print_sudoku_result+0x74>
80000084:	fec42703          	lw	a4,-20(s0)
80000088:	800017b7          	lui	a5,0x80001
8000008c:	8e878793          	addi	a5,a5,-1816 # 800008e8 <_end+0xffffefe0>
80000090:	00f707b3          	add	a5,a4,a5
80000094:	0007c783          	lbu	a5,0(a5)
80000098:	fef42423          	sw	a5,-24(s0)
8000009c:	fcc40793          	addi	a5,s0,-52
800000a0:	00a00613          	li	a2,10
800000a4:	00078593          	mv	a1,a5
800000a8:	fe842503          	lw	a0,-24(s0)
800000ac:	61c000ef          	jal	ra,800006c8 <itoa>
800000b0:	fcc40793          	addi	a5,s0,-52
800000b4:	00078513          	mv	a0,a5
800000b8:	f75ff0ef          	jal	ra,8000002c <puts>
800000bc:	fec42783          	lw	a5,-20(s0)
800000c0:	00178793          	addi	a5,a5,1
800000c4:	fef42623          	sw	a5,-20(s0)
800000c8:	fec42703          	lw	a4,-20(s0)
800000cc:	00f00793          	li	a5,15
800000d0:	fae7dae3          	bge	a5,a4,80000084 <print_sudoku_result+0x30>
800000d4:	00000013          	nop
800000d8:	00000013          	nop
800000dc:	03c12083          	lw	ra,60(sp)
800000e0:	03812403          	lw	s0,56(sp)
800000e4:	04010113          	addi	sp,sp,64
800000e8:	00008067          	ret

800000ec <main>:
800000ec:	fe010113          	addi	sp,sp,-32
800000f0:	00112e23          	sw	ra,28(sp)
800000f4:	00812c23          	sw	s0,24(sp)
800000f8:	02010413          	addi	s0,sp,32
800000fc:	800017b7          	lui	a5,0x80001
80000100:	8e878513          	addi	a0,a5,-1816 # 800008e8 <_end+0xffffefe0>
80000104:	51c000ef          	jal	ra,80000620 <sudoku_2x2_c>
80000108:	00050793          	mv	a5,a0
8000010c:	fef407a3          	sb	a5,-17(s0)
80000110:	fef44783          	lbu	a5,-17(s0)
80000114:	00078663          	beqz	a5,80000120 <main+0x34>
80000118:	f3dff0ef          	jal	ra,80000054 <print_sudoku_result>
8000011c:	0100006f          	j	8000012c <main+0x40>
80000120:	800017b7          	lui	a5,0x80001
80000124:	89c78513          	addi	a0,a5,-1892 # 8000089c <_end+0xffffef94>
80000128:	f05ff0ef          	jal	ra,8000002c <puts>
8000012c:	00000793          	li	a5,0
80000130:	00078513          	mv	a0,a5
80000134:	01c12083          	lw	ra,28(sp)
80000138:	01812403          	lw	s0,24(sp)
8000013c:	02010113          	addi	sp,sp,32
80000140:	00008067          	ret

80000144 <check>:
80000144:	fc010113          	addi	sp,sp,-64
80000148:	02812e23          	sw	s0,60(sp)
8000014c:	04010413          	addi	s0,sp,64
80000150:	fca42623          	sw	a0,-52(s0)
80000154:	fcb42423          	sw	a1,-56(s0)
80000158:	fc842783          	lw	a5,-56(s0)
8000015c:	41f7d713          	srai	a4,a5,0x1f
80000160:	00377713          	andi	a4,a4,3
80000164:	00f707b3          	add	a5,a4,a5
80000168:	4027d793          	srai	a5,a5,0x2
8000016c:	fef42223          	sw	a5,-28(s0)
80000170:	fc842703          	lw	a4,-56(s0)
80000174:	41f75793          	srai	a5,a4,0x1f
80000178:	01e7d793          	srli	a5,a5,0x1e
8000017c:	00f70733          	add	a4,a4,a5
80000180:	00377713          	andi	a4,a4,3
80000184:	40f707b3          	sub	a5,a4,a5
80000188:	fef42023          	sw	a5,-32(s0)
8000018c:	fe442783          	lw	a5,-28(s0)
80000190:	00279793          	slli	a5,a5,0x2
80000194:	fe042703          	lw	a4,-32(s0)
80000198:	00f707b3          	add	a5,a4,a5
8000019c:	fcf42e23          	sw	a5,-36(s0)
800001a0:	fe042623          	sw	zero,-20(s0)
800001a4:	05c0006f          	j	80000200 <check+0xbc>
800001a8:	fec42703          	lw	a4,-20(s0)
800001ac:	fe442783          	lw	a5,-28(s0)
800001b0:	04f70063          	beq	a4,a5,800001f0 <check+0xac>
800001b4:	fec42783          	lw	a5,-20(s0)
800001b8:	00279713          	slli	a4,a5,0x2
800001bc:	fe042783          	lw	a5,-32(s0)
800001c0:	00f707b3          	add	a5,a4,a5
800001c4:	00078713          	mv	a4,a5
800001c8:	fcc42783          	lw	a5,-52(s0)
800001cc:	00e787b3          	add	a5,a5,a4
800001d0:	0007c703          	lbu	a4,0(a5)
800001d4:	fdc42783          	lw	a5,-36(s0)
800001d8:	fcc42683          	lw	a3,-52(s0)
800001dc:	00f687b3          	add	a5,a3,a5
800001e0:	0007c783          	lbu	a5,0(a5)
800001e4:	00f71863          	bne	a4,a5,800001f4 <check+0xb0>
800001e8:	00000793          	li	a5,0
800001ec:	32c0006f          	j	80000518 <check+0x3d4>
800001f0:	00000013          	nop
800001f4:	fec42783          	lw	a5,-20(s0)
800001f8:	00178793          	addi	a5,a5,1
800001fc:	fef42623          	sw	a5,-20(s0)
80000200:	fec42703          	lw	a4,-20(s0)
80000204:	00300793          	li	a5,3
80000208:	fae7d0e3          	bge	a5,a4,800001a8 <check+0x64>
8000020c:	fe042423          	sw	zero,-24(s0)
80000210:	05c0006f          	j	8000026c <check+0x128>
80000214:	fe842703          	lw	a4,-24(s0)
80000218:	fe042783          	lw	a5,-32(s0)
8000021c:	04f70063          	beq	a4,a5,8000025c <check+0x118>
80000220:	fe442783          	lw	a5,-28(s0)
80000224:	00279713          	slli	a4,a5,0x2
80000228:	fe842783          	lw	a5,-24(s0)
8000022c:	00f707b3          	add	a5,a4,a5
80000230:	00078713          	mv	a4,a5
80000234:	fcc42783          	lw	a5,-52(s0)
80000238:	00e787b3          	add	a5,a5,a4
8000023c:	0007c703          	lbu	a4,0(a5)
80000240:	fdc42783          	lw	a5,-36(s0)
80000244:	fcc42683          	lw	a3,-52(s0)
80000248:	00f687b3          	add	a5,a3,a5
8000024c:	0007c783          	lbu	a5,0(a5)
80000250:	00f71863          	bne	a4,a5,80000260 <check+0x11c>
80000254:	00000793          	li	a5,0
80000258:	2c00006f          	j	80000518 <check+0x3d4>
8000025c:	00000013          	nop
80000260:	fe842783          	lw	a5,-24(s0)
80000264:	00178793          	addi	a5,a5,1
80000268:	fef42423          	sw	a5,-24(s0)
8000026c:	fe842703          	lw	a4,-24(s0)
80000270:	00300793          	li	a5,3
80000274:	fae7d0e3          	bge	a5,a4,80000214 <check+0xd0>
80000278:	fe442703          	lw	a4,-28(s0)
8000027c:	41f75793          	srai	a5,a4,0x1f
80000280:	01f7d793          	srli	a5,a5,0x1f
80000284:	00f70733          	add	a4,a4,a5
80000288:	00177713          	andi	a4,a4,1
8000028c:	40f707b3          	sub	a5,a4,a5
80000290:	fcf42c23          	sw	a5,-40(s0)
80000294:	fe042703          	lw	a4,-32(s0)
80000298:	41f75793          	srai	a5,a4,0x1f
8000029c:	01f7d793          	srli	a5,a5,0x1f
800002a0:	00f70733          	add	a4,a4,a5
800002a4:	00177713          	andi	a4,a4,1
800002a8:	40f707b3          	sub	a5,a4,a5
800002ac:	fcf42a23          	sw	a5,-44(s0)
800002b0:	fd842783          	lw	a5,-40(s0)
800002b4:	08079663          	bnez	a5,80000340 <check+0x1fc>
800002b8:	fd442783          	lw	a5,-44(s0)
800002bc:	08079263          	bnez	a5,80000340 <check+0x1fc>
800002c0:	fdc42783          	lw	a5,-36(s0)
800002c4:	fcc42703          	lw	a4,-52(s0)
800002c8:	00f707b3          	add	a5,a4,a5
800002cc:	0007c703          	lbu	a4,0(a5)
800002d0:	fdc42783          	lw	a5,-36(s0)
800002d4:	00178793          	addi	a5,a5,1
800002d8:	fcc42683          	lw	a3,-52(s0)
800002dc:	00f687b3          	add	a5,a3,a5
800002e0:	0007c783          	lbu	a5,0(a5)
800002e4:	04f70a63          	beq	a4,a5,80000338 <check+0x1f4>
800002e8:	fdc42783          	lw	a5,-36(s0)
800002ec:	fcc42703          	lw	a4,-52(s0)
800002f0:	00f707b3          	add	a5,a4,a5
800002f4:	0007c703          	lbu	a4,0(a5)
800002f8:	fdc42783          	lw	a5,-36(s0)
800002fc:	00478793          	addi	a5,a5,4
80000300:	fcc42683          	lw	a3,-52(s0)
80000304:	00f687b3          	add	a5,a3,a5
80000308:	0007c783          	lbu	a5,0(a5)
8000030c:	02f70663          	beq	a4,a5,80000338 <check+0x1f4>
80000310:	fdc42783          	lw	a5,-36(s0)
80000314:	fcc42703          	lw	a4,-52(s0)
80000318:	00f707b3          	add	a5,a4,a5
8000031c:	0007c703          	lbu	a4,0(a5)
80000320:	fdc42783          	lw	a5,-36(s0)
80000324:	00578793          	addi	a5,a5,5
80000328:	fcc42683          	lw	a3,-52(s0)
8000032c:	00f687b3          	add	a5,a3,a5
80000330:	0007c783          	lbu	a5,0(a5)
80000334:	1cf71663          	bne	a4,a5,80000500 <check+0x3bc>
80000338:	00000793          	li	a5,0
8000033c:	1dc0006f          	j	80000518 <check+0x3d4>
80000340:	fd842783          	lw	a5,-40(s0)
80000344:	08079863          	bnez	a5,800003d4 <check+0x290>
80000348:	fd442703          	lw	a4,-44(s0)
8000034c:	00100793          	li	a5,1
80000350:	08f71263          	bne	a4,a5,800003d4 <check+0x290>
80000354:	fdc42783          	lw	a5,-36(s0)
80000358:	fcc42703          	lw	a4,-52(s0)
8000035c:	00f707b3          	add	a5,a4,a5
80000360:	0007c703          	lbu	a4,0(a5)
80000364:	fdc42783          	lw	a5,-36(s0)
80000368:	fff78793          	addi	a5,a5,-1
8000036c:	fcc42683          	lw	a3,-52(s0)
80000370:	00f687b3          	add	a5,a3,a5
80000374:	0007c783          	lbu	a5,0(a5)
80000378:	04f70a63          	beq	a4,a5,800003cc <check+0x288>
8000037c:	fdc42783          	lw	a5,-36(s0)
80000380:	fcc42703          	lw	a4,-52(s0)
80000384:	00f707b3          	add	a5,a4,a5
80000388:	0007c703          	lbu	a4,0(a5)
8000038c:	fdc42783          	lw	a5,-36(s0)
80000390:	00378793          	addi	a5,a5,3
80000394:	fcc42683          	lw	a3,-52(s0)
80000398:	00f687b3          	add	a5,a3,a5
8000039c:	0007c783          	lbu	a5,0(a5)
800003a0:	02f70663          	beq	a4,a5,800003cc <check+0x288>
800003a4:	fdc42783          	lw	a5,-36(s0)
800003a8:	fcc42703          	lw	a4,-52(s0)
800003ac:	00f707b3          	add	a5,a4,a5
800003b0:	0007c703          	lbu	a4,0(a5)
800003b4:	fdc42783          	lw	a5,-36(s0)
800003b8:	00478793          	addi	a5,a5,4
800003bc:	fcc42683          	lw	a3,-52(s0)
800003c0:	00f687b3          	add	a5,a3,a5
800003c4:	0007c783          	lbu	a5,0(a5)
800003c8:	14f71063          	bne	a4,a5,80000508 <check+0x3c4>
800003cc:	00000793          	li	a5,0
800003d0:	1480006f          	j	80000518 <check+0x3d4>
800003d4:	fd842703          	lw	a4,-40(s0)
800003d8:	00100793          	li	a5,1
800003dc:	08f71663          	bne	a4,a5,80000468 <check+0x324>
800003e0:	fd442783          	lw	a5,-44(s0)
800003e4:	08079263          	bnez	a5,80000468 <check+0x324>
800003e8:	fdc42783          	lw	a5,-36(s0)
800003ec:	fcc42703          	lw	a4,-52(s0)
800003f0:	00f707b3          	add	a5,a4,a5
800003f4:	0007c703          	lbu	a4,0(a5)
800003f8:	fdc42783          	lw	a5,-36(s0)
800003fc:	ffc78793          	addi	a5,a5,-4
80000400:	fcc42683          	lw	a3,-52(s0)
80000404:	00f687b3          	add	a5,a3,a5
80000408:	0007c783          	lbu	a5,0(a5)
8000040c:	04f70a63          	beq	a4,a5,80000460 <check+0x31c>
80000410:	fdc42783          	lw	a5,-36(s0)
80000414:	fcc42703          	lw	a4,-52(s0)
80000418:	00f707b3          	add	a5,a4,a5
8000041c:	0007c703          	lbu	a4,0(a5)
80000420:	fdc42783          	lw	a5,-36(s0)
80000424:	ffd78793          	addi	a5,a5,-3
80000428:	fcc42683          	lw	a3,-52(s0)
8000042c:	00f687b3          	add	a5,a3,a5
80000430:	0007c783          	lbu	a5,0(a5)
80000434:	02f70663          	beq	a4,a5,80000460 <check+0x31c>
80000438:	fdc42783          	lw	a5,-36(s0)
8000043c:	fcc42703          	lw	a4,-52(s0)
80000440:	00f707b3          	add	a5,a4,a5
80000444:	0007c703          	lbu	a4,0(a5)
80000448:	fdc42783          	lw	a5,-36(s0)
8000044c:	00178793          	addi	a5,a5,1
80000450:	fcc42683          	lw	a3,-52(s0)
80000454:	00f687b3          	add	a5,a3,a5
80000458:	0007c783          	lbu	a5,0(a5)
8000045c:	0af71a63          	bne	a4,a5,80000510 <check+0x3cc>
80000460:	00000793          	li	a5,0
80000464:	0b40006f          	j	80000518 <check+0x3d4>
80000468:	fd842703          	lw	a4,-40(s0)
8000046c:	00100793          	li	a5,1
80000470:	0af71263          	bne	a4,a5,80000514 <check+0x3d0>
80000474:	fd442703          	lw	a4,-44(s0)
80000478:	00100793          	li	a5,1
8000047c:	08f71c63          	bne	a4,a5,80000514 <check+0x3d0>
80000480:	fdc42783          	lw	a5,-36(s0)
80000484:	fcc42703          	lw	a4,-52(s0)
80000488:	00f707b3          	add	a5,a4,a5
8000048c:	0007c703          	lbu	a4,0(a5)
80000490:	fdc42783          	lw	a5,-36(s0)
80000494:	ffb78793          	addi	a5,a5,-5
80000498:	fcc42683          	lw	a3,-52(s0)
8000049c:	00f687b3          	add	a5,a3,a5
800004a0:	0007c783          	lbu	a5,0(a5)
800004a4:	04f70a63          	beq	a4,a5,800004f8 <check+0x3b4>
800004a8:	fdc42783          	lw	a5,-36(s0)
800004ac:	fcc42703          	lw	a4,-52(s0)
800004b0:	00f707b3          	add	a5,a4,a5
800004b4:	0007c703          	lbu	a4,0(a5)
800004b8:	fdc42783          	lw	a5,-36(s0)
800004bc:	ffc78793          	addi	a5,a5,-4
800004c0:	fcc42683          	lw	a3,-52(s0)
800004c4:	00f687b3          	add	a5,a3,a5
800004c8:	0007c783          	lbu	a5,0(a5)
800004cc:	02f70663          	beq	a4,a5,800004f8 <check+0x3b4>
800004d0:	fdc42783          	lw	a5,-36(s0)
800004d4:	fcc42703          	lw	a4,-52(s0)
800004d8:	00f707b3          	add	a5,a4,a5
800004dc:	0007c703          	lbu	a4,0(a5)
800004e0:	fdc42783          	lw	a5,-36(s0)
800004e4:	fff78793          	addi	a5,a5,-1
800004e8:	fcc42683          	lw	a3,-52(s0)
800004ec:	00f687b3          	add	a5,a3,a5
800004f0:	0007c783          	lbu	a5,0(a5)
800004f4:	02f71063          	bne	a4,a5,80000514 <check+0x3d0>
800004f8:	00000793          	li	a5,0
800004fc:	01c0006f          	j	80000518 <check+0x3d4>
80000500:	00000013          	nop
80000504:	0100006f          	j	80000514 <check+0x3d0>
80000508:	00000013          	nop
8000050c:	0080006f          	j	80000514 <check+0x3d0>
80000510:	00000013          	nop
80000514:	00100793          	li	a5,1
80000518:	00078513          	mv	a0,a5
8000051c:	03c12403          	lw	s0,60(sp)
80000520:	04010113          	addi	sp,sp,64
80000524:	00008067          	ret

80000528 <solver>:
80000528:	fd010113          	addi	sp,sp,-48
8000052c:	02112623          	sw	ra,44(sp)
80000530:	02812423          	sw	s0,40(sp)
80000534:	03010413          	addi	s0,sp,48
80000538:	fca42e23          	sw	a0,-36(s0)
8000053c:	fcb42c23          	sw	a1,-40(s0)
80000540:	fd842703          	lw	a4,-40(s0)
80000544:	00f00793          	li	a5,15
80000548:	00e7d663          	bge	a5,a4,80000554 <solver+0x2c>
8000054c:	00100793          	li	a5,1
80000550:	0bc0006f          	j	8000060c <solver+0xe4>
80000554:	fd842783          	lw	a5,-40(s0)
80000558:	fdc42703          	lw	a4,-36(s0)
8000055c:	00f707b3          	add	a5,a4,a5
80000560:	0007c783          	lbu	a5,0(a5)
80000564:	02078063          	beqz	a5,80000584 <solver+0x5c>
80000568:	fd842783          	lw	a5,-40(s0)
8000056c:	00178793          	addi	a5,a5,1
80000570:	00078593          	mv	a1,a5
80000574:	fdc42503          	lw	a0,-36(s0)
80000578:	fb1ff0ef          	jal	ra,80000528 <solver>
8000057c:	00050793          	mv	a5,a0
80000580:	08c0006f          	j	8000060c <solver+0xe4>
80000584:	00100793          	li	a5,1
80000588:	fef42623          	sw	a5,-20(s0)
8000058c:	0700006f          	j	800005fc <solver+0xd4>
80000590:	fd842783          	lw	a5,-40(s0)
80000594:	fdc42703          	lw	a4,-36(s0)
80000598:	00f707b3          	add	a5,a4,a5
8000059c:	fec42703          	lw	a4,-20(s0)
800005a0:	0ff77713          	zext.b	a4,a4
800005a4:	00e78023          	sb	a4,0(a5)
800005a8:	fd842583          	lw	a1,-40(s0)
800005ac:	fdc42503          	lw	a0,-36(s0)
800005b0:	b95ff0ef          	jal	ra,80000144 <check>
800005b4:	00050793          	mv	a5,a0
800005b8:	02078463          	beqz	a5,800005e0 <solver+0xb8>
800005bc:	fd842783          	lw	a5,-40(s0)
800005c0:	00178793          	addi	a5,a5,1
800005c4:	00078593          	mv	a1,a5
800005c8:	fdc42503          	lw	a0,-36(s0)
800005cc:	f5dff0ef          	jal	ra,80000528 <solver>
800005d0:	00050793          	mv	a5,a0
800005d4:	00078663          	beqz	a5,800005e0 <solver+0xb8>
800005d8:	00100793          	li	a5,1
800005dc:	0300006f          	j	8000060c <solver+0xe4>
800005e0:	fd842783          	lw	a5,-40(s0)
800005e4:	fdc42703          	lw	a4,-36(s0)
800005e8:	00f707b3          	add	a5,a4,a5
800005ec:	00078023          	sb	zero,0(a5)
800005f0:	fec42783          	lw	a5,-20(s0)
800005f4:	00178793          	addi	a5,a5,1
800005f8:	fef42623          	sw	a5,-20(s0)
800005fc:	fec42703          	lw	a4,-20(s0)
80000600:	00400793          	li	a5,4
80000604:	f8e7d6e3          	bge	a5,a4,80000590 <solver+0x68>
80000608:	00000793          	li	a5,0
8000060c:	00078513          	mv	a0,a5
80000610:	02c12083          	lw	ra,44(sp)
80000614:	02812403          	lw	s0,40(sp)
80000618:	03010113          	addi	sp,sp,48
8000061c:	00008067          	ret

80000620 <sudoku_2x2_c>:
80000620:	fe010113          	addi	sp,sp,-32
80000624:	00112e23          	sw	ra,28(sp)
80000628:	00812c23          	sw	s0,24(sp)
8000062c:	02010413          	addi	s0,sp,32
80000630:	fea42623          	sw	a0,-20(s0)
80000634:	00000593          	li	a1,0
80000638:	fec42503          	lw	a0,-20(s0)
8000063c:	eedff0ef          	jal	ra,80000528 <solver>
80000640:	00050793          	mv	a5,a0
80000644:	00078513          	mv	a0,a5
80000648:	01c12083          	lw	ra,28(sp)
8000064c:	01812403          	lw	s0,24(sp)
80000650:	02010113          	addi	sp,sp,32
80000654:	00008067          	ret

Disassembly of section .text.__itoa:

80000658 <__itoa>:
80000658:	ff010113          	addi	sp,sp,-16
8000065c:	00812423          	sw	s0,8(sp)
80000660:	00112623          	sw	ra,12(sp)
80000664:	ffe60713          	addi	a4,a2,-2
80000668:	02200793          	li	a5,34
8000066c:	00058413          	mv	s0,a1
80000670:	04e7e063          	bltu	a5,a4,800006b0 <__itoa+0x58>
80000674:	00a00793          	li	a5,10
80000678:	02f60063          	beq	a2,a5,80000698 <__itoa+0x40>
8000067c:	00040593          	mv	a1,s0
80000680:	0b8000ef          	jal	ra,80000738 <__utoa>
80000684:	00c12083          	lw	ra,12(sp)
80000688:	00040513          	mv	a0,s0
8000068c:	00812403          	lw	s0,8(sp)
80000690:	01010113          	addi	sp,sp,16
80000694:	00008067          	ret
80000698:	fe0552e3          	bgez	a0,8000067c <__itoa+0x24>
8000069c:	02d00793          	li	a5,45
800006a0:	00f58023          	sb	a5,0(a1)
800006a4:	40a00533          	neg	a0,a0
800006a8:	00158593          	addi	a1,a1,1
800006ac:	fd5ff06f          	j	80000680 <__itoa+0x28>
800006b0:	00058023          	sb	zero,0(a1)
800006b4:	00c12083          	lw	ra,12(sp)
800006b8:	00812403          	lw	s0,8(sp)
800006bc:	00000513          	li	a0,0
800006c0:	01010113          	addi	sp,sp,16
800006c4:	00008067          	ret

Disassembly of section .text.itoa:

800006c8 <itoa>:
800006c8:	ff010113          	addi	sp,sp,-16
800006cc:	00812423          	sw	s0,8(sp)
800006d0:	00112623          	sw	ra,12(sp)
800006d4:	ffe60713          	addi	a4,a2,-2
800006d8:	02200793          	li	a5,34
800006dc:	00058413          	mv	s0,a1
800006e0:	04e7e063          	bltu	a5,a4,80000720 <itoa+0x58>
800006e4:	00a00793          	li	a5,10
800006e8:	02f60063          	beq	a2,a5,80000708 <itoa+0x40>
800006ec:	00040593          	mv	a1,s0
800006f0:	048000ef          	jal	ra,80000738 <__utoa>
800006f4:	00c12083          	lw	ra,12(sp)
800006f8:	00040513          	mv	a0,s0
800006fc:	00812403          	lw	s0,8(sp)
80000700:	01010113          	addi	sp,sp,16
80000704:	00008067          	ret
80000708:	fe0552e3          	bgez	a0,800006ec <itoa+0x24>
8000070c:	02d00793          	li	a5,45
80000710:	00f58023          	sb	a5,0(a1)
80000714:	40a00533          	neg	a0,a0
80000718:	00158593          	addi	a1,a1,1
8000071c:	fd5ff06f          	j	800006f0 <itoa+0x28>
80000720:	00058023          	sb	zero,0(a1)
80000724:	00c12083          	lw	ra,12(sp)
80000728:	00812403          	lw	s0,8(sp)
8000072c:	00000513          	li	a0,0
80000730:	01010113          	addi	sp,sp,16
80000734:	00008067          	ret

Disassembly of section .text.__utoa:

80000738 <__utoa>:
80000738:	800017b7          	lui	a5,0x80001
8000073c:	8c078793          	addi	a5,a5,-1856 # 800008c0 <_end+0xffffefb8>
80000740:	01c7a683          	lw	a3,28(a5)
80000744:	0207a703          	lw	a4,32(a5)
80000748:	0007af83          	lw	t6,0(a5)
8000074c:	0047af03          	lw	t5,4(a5)
80000750:	0087ae83          	lw	t4,8(a5)
80000754:	00c7ae03          	lw	t3,12(a5)
80000758:	0107a303          	lw	t1,16(a5)
8000075c:	0147a883          	lw	a7,20(a5)
80000760:	0187a803          	lw	a6,24(a5)
80000764:	0247c783          	lbu	a5,36(a5)
80000768:	fd010113          	addi	sp,sp,-48
8000076c:	02d12223          	sw	a3,36(sp)
80000770:	02e12423          	sw	a4,40(sp)
80000774:	02f10623          	sb	a5,44(sp)
80000778:	01f12423          	sw	t6,8(sp)
8000077c:	01e12623          	sw	t5,12(sp)
80000780:	01d12823          	sw	t4,16(sp)
80000784:	01c12a23          	sw	t3,20(sp)
80000788:	00612c23          	sw	t1,24(sp)
8000078c:	01112e23          	sw	a7,28(sp)
80000790:	03012023          	sw	a6,32(sp)
80000794:	ffe60693          	addi	a3,a2,-2
80000798:	02200793          	li	a5,34
8000079c:	00000713          	li	a4,0
800007a0:	06d7ea63          	bltu	a5,a3,80000814 <__utoa+0xdc>
800007a4:	02c577b3          	remu	a5,a0,a2
800007a8:	00070813          	mv	a6,a4
800007ac:	00170713          	addi	a4,a4,1
800007b0:	00e586b3          	add	a3,a1,a4
800007b4:	00050893          	mv	a7,a0
800007b8:	03078793          	addi	a5,a5,48
800007bc:	002787b3          	add	a5,a5,sp
800007c0:	fd87c783          	lbu	a5,-40(a5)
800007c4:	02c55533          	divu	a0,a0,a2
800007c8:	fef68fa3          	sb	a5,-1(a3)
800007cc:	fcc8fce3          	bgeu	a7,a2,800007a4 <__utoa+0x6c>
800007d0:	00068023          	sb	zero,0(a3)
800007d4:	02080a63          	beqz	a6,80000808 <__utoa+0xd0>
800007d8:	00058693          	mv	a3,a1
800007dc:	01058733          	add	a4,a1,a6
800007e0:	00000793          	li	a5,0
800007e4:	00074503          	lbu	a0,0(a4)
800007e8:	0006c603          	lbu	a2,0(a3)
800007ec:	00178793          	addi	a5,a5,1
800007f0:	00a68023          	sb	a0,0(a3)
800007f4:	00c70023          	sb	a2,0(a4)
800007f8:	40f80633          	sub	a2,a6,a5
800007fc:	00168693          	addi	a3,a3,1
80000800:	fff70713          	addi	a4,a4,-1
80000804:	fec7c0e3          	blt	a5,a2,800007e4 <__utoa+0xac>
80000808:	00058513          	mv	a0,a1
8000080c:	03010113          	addi	sp,sp,48
80000810:	00008067          	ret
80000814:	00058023          	sb	zero,0(a1)
80000818:	00000513          	li	a0,0
8000081c:	03010113          	addi	sp,sp,48
80000820:	00008067          	ret

Disassembly of section .text.utoa:

80000824 <utoa>:
80000824:	f15ff06f          	j	80000738 <__utoa>
